
bomb：     文件格式 elf64-x86-64


Disassembly of section .init:

0000000000000e98 <_init>:
 e98:	48 83 ec 08          	sub    $0x8,%rsp
 e9c:	48 8b 05 3d 21 20 00 	mov    0x20213d(%rip),%rax        # 202fe0 <__gmon_start__>
 ea3:	48 85 c0             	test   %rax,%rax
 ea6:	74 02                	je     eaa <_init+0x12>
 ea8:	ff d0                	callq  *%rax
 eaa:	48 83 c4 08          	add    $0x8,%rsp
 eae:	c3                   	retq   

Disassembly of section .plt:

0000000000000eb0 <.plt>:
     eb0:	ff 35 52 21 20 00    	pushq  0x202152(%rip)        # 203008 <_GLOBAL_OFFSET_TABLE_+0x8>
     eb6:	ff 25 54 21 20 00    	jmpq   *0x202154(%rip)        # 203010 <_GLOBAL_OFFSET_TABLE_+0x10>
     ebc:	0f 1f 40 00          	nopl   0x0(%rax)

0000000000000ec0 <getenv@plt>:
     ec0:	ff 25 52 21 20 00    	jmpq   *0x202152(%rip)        # 203018 <getenv@GLIBC_2.2.5>
     ec6:	68 00 00 00 00       	pushq  $0x0
     ecb:	e9 e0 ff ff ff       	jmpq   eb0 <.plt>

0000000000000ed0 <__errno_location@plt>:
     ed0:	ff 25 4a 21 20 00    	jmpq   *0x20214a(%rip)        # 203020 <__errno_location@GLIBC_2.2.5>
     ed6:	68 01 00 00 00       	pushq  $0x1
     edb:	e9 d0 ff ff ff       	jmpq   eb0 <.plt>

0000000000000ee0 <strcpy@plt>:
     ee0:	ff 25 42 21 20 00    	jmpq   *0x202142(%rip)        # 203028 <strcpy@GLIBC_2.2.5>
     ee6:	68 02 00 00 00       	pushq  $0x2
     eeb:	e9 c0 ff ff ff       	jmpq   eb0 <.plt>

0000000000000ef0 <puts@plt>:
     ef0:	ff 25 3a 21 20 00    	jmpq   *0x20213a(%rip)        # 203030 <puts@GLIBC_2.2.5>
     ef6:	68 03 00 00 00       	pushq  $0x3
     efb:	e9 b0 ff ff ff       	jmpq   eb0 <.plt>

0000000000000f00 <write@plt>:
     f00:	ff 25 32 21 20 00    	jmpq   *0x202132(%rip)        # 203038 <write@GLIBC_2.2.5>
     f06:	68 04 00 00 00       	pushq  $0x4
     f0b:	e9 a0 ff ff ff       	jmpq   eb0 <.plt>

0000000000000f10 <fclose@plt>:
     f10:	ff 25 2a 21 20 00    	jmpq   *0x20212a(%rip)        # 203040 <fclose@GLIBC_2.2.5>
     f16:	68 05 00 00 00       	pushq  $0x5
     f1b:	e9 90 ff ff ff       	jmpq   eb0 <.plt>

0000000000000f20 <system@plt>:
     f20:	ff 25 22 21 20 00    	jmpq   *0x202122(%rip)        # 203048 <system@GLIBC_2.2.5>
     f26:	68 06 00 00 00       	pushq  $0x6
     f2b:	e9 80 ff ff ff       	jmpq   eb0 <.plt>

0000000000000f30 <printf@plt>:
     f30:	ff 25 1a 21 20 00    	jmpq   *0x20211a(%rip)        # 203050 <printf@GLIBC_2.2.5>
     f36:	68 07 00 00 00       	pushq  $0x7
     f3b:	e9 70 ff ff ff       	jmpq   eb0 <.plt>

0000000000000f40 <rewind@plt>:
     f40:	ff 25 12 21 20 00    	jmpq   *0x202112(%rip)        # 203058 <rewind@GLIBC_2.2.5>
     f46:	68 08 00 00 00       	pushq  $0x8
     f4b:	e9 60 ff ff ff       	jmpq   eb0 <.plt>

0000000000000f50 <dup@plt>:
     f50:	ff 25 0a 21 20 00    	jmpq   *0x20210a(%rip)        # 203060 <dup@GLIBC_2.2.5>
     f56:	68 09 00 00 00       	pushq  $0x9
     f5b:	e9 50 ff ff ff       	jmpq   eb0 <.plt>

0000000000000f60 <close@plt>:
     f60:	ff 25 02 21 20 00    	jmpq   *0x202102(%rip)        # 203068 <close@GLIBC_2.2.5>
     f66:	68 0a 00 00 00       	pushq  $0xa
     f6b:	e9 40 ff ff ff       	jmpq   eb0 <.plt>

0000000000000f70 <fputc@plt>:
     f70:	ff 25 fa 20 20 00    	jmpq   *0x2020fa(%rip)        # 203070 <fputc@GLIBC_2.2.5>
     f76:	68 0b 00 00 00       	pushq  $0xb
     f7b:	e9 30 ff ff ff       	jmpq   eb0 <.plt>

0000000000000f80 <fgets@plt>:
     f80:	ff 25 f2 20 20 00    	jmpq   *0x2020f2(%rip)        # 203078 <fgets@GLIBC_2.2.5>
     f86:	68 0c 00 00 00       	pushq  $0xc
     f8b:	e9 20 ff ff ff       	jmpq   eb0 <.plt>

0000000000000f90 <tmpfile@plt>:
     f90:	ff 25 ea 20 20 00    	jmpq   *0x2020ea(%rip)        # 203080 <tmpfile@GLIBC_2.2.5>
     f96:	68 0d 00 00 00       	pushq  $0xd
     f9b:	e9 10 ff ff ff       	jmpq   eb0 <.plt>

0000000000000fa0 <signal@plt>:
     fa0:	ff 25 e2 20 20 00    	jmpq   *0x2020e2(%rip)        # 203088 <signal@GLIBC_2.2.5>
     fa6:	68 0e 00 00 00       	pushq  $0xe
     fab:	e9 00 ff ff ff       	jmpq   eb0 <.plt>

0000000000000fb0 <gethostbyname@plt>:
     fb0:	ff 25 da 20 20 00    	jmpq   *0x2020da(%rip)        # 203090 <gethostbyname@GLIBC_2.2.5>
     fb6:	68 0f 00 00 00       	pushq  $0xf
     fbb:	e9 f0 fe ff ff       	jmpq   eb0 <.plt>

0000000000000fc0 <fprintf@plt>:
     fc0:	ff 25 d2 20 20 00    	jmpq   *0x2020d2(%rip)        # 203098 <fprintf@GLIBC_2.2.5>
     fc6:	68 10 00 00 00       	pushq  $0x10
     fcb:	e9 e0 fe ff ff       	jmpq   eb0 <.plt>

0000000000000fd0 <strtol@plt>:
     fd0:	ff 25 ca 20 20 00    	jmpq   *0x2020ca(%rip)        # 2030a0 <strtol@GLIBC_2.2.5>
     fd6:	68 11 00 00 00       	pushq  $0x11
     fdb:	e9 d0 fe ff ff       	jmpq   eb0 <.plt>

0000000000000fe0 <inet_pton@plt>:
     fe0:	ff 25 c2 20 20 00    	jmpq   *0x2020c2(%rip)        # 2030a8 <inet_pton@GLIBC_2.2.5>
     fe6:	68 12 00 00 00       	pushq  $0x12
     feb:	e9 c0 fe ff ff       	jmpq   eb0 <.plt>

0000000000000ff0 <fflush@plt>:
     ff0:	ff 25 ba 20 20 00    	jmpq   *0x2020ba(%rip)        # 2030b0 <fflush@GLIBC_2.2.5>
     ff6:	68 13 00 00 00       	pushq  $0x13
     ffb:	e9 b0 fe ff ff       	jmpq   eb0 <.plt>

0000000000001000 <__isoc99_sscanf@plt>:
    1000:	ff 25 b2 20 20 00    	jmpq   *0x2020b2(%rip)        # 2030b8 <__isoc99_sscanf@GLIBC_2.7>
    1006:	68 14 00 00 00       	pushq  $0x14
    100b:	e9 a0 fe ff ff       	jmpq   eb0 <.plt>

0000000000001010 <bcopy@plt>:
    1010:	ff 25 aa 20 20 00    	jmpq   *0x2020aa(%rip)        # 2030c0 <bcopy@GLIBC_2.2.5>
    1016:	68 15 00 00 00       	pushq  $0x15
    101b:	e9 90 fe ff ff       	jmpq   eb0 <.plt>

0000000000001020 <cuserid@plt>:
    1020:	ff 25 a2 20 20 00    	jmpq   *0x2020a2(%rip)        # 2030c8 <cuserid@GLIBC_2.2.5>
    1026:	68 16 00 00 00       	pushq  $0x16
    102b:	e9 80 fe ff ff       	jmpq   eb0 <.plt>

0000000000001030 <fopen@plt>:
    1030:	ff 25 9a 20 20 00    	jmpq   *0x20209a(%rip)        # 2030d0 <fopen@GLIBC_2.2.5>
    1036:	68 17 00 00 00       	pushq  $0x17
    103b:	e9 70 fe ff ff       	jmpq   eb0 <.plt>

0000000000001040 <strcat@plt>:
    1040:	ff 25 92 20 20 00    	jmpq   *0x202092(%rip)        # 2030d8 <strcat@GLIBC_2.2.5>
    1046:	68 18 00 00 00       	pushq  $0x18
    104b:	e9 60 fe ff ff       	jmpq   eb0 <.plt>

0000000000001050 <sprintf@plt>:
    1050:	ff 25 8a 20 20 00    	jmpq   *0x20208a(%rip)        # 2030e0 <sprintf@GLIBC_2.2.5>
    1056:	68 19 00 00 00       	pushq  $0x19
    105b:	e9 50 fe ff ff       	jmpq   eb0 <.plt>

0000000000001060 <exit@plt>:
    1060:	ff 25 82 20 20 00    	jmpq   *0x202082(%rip)        # 2030e8 <exit@GLIBC_2.2.5>
    1066:	68 1a 00 00 00       	pushq  $0x1a
    106b:	e9 40 fe ff ff       	jmpq   eb0 <.plt>

0000000000001070 <connect@plt>:
    1070:	ff 25 7a 20 20 00    	jmpq   *0x20207a(%rip)        # 2030f0 <connect@GLIBC_2.2.5>
    1076:	68 1b 00 00 00       	pushq  $0x1b
    107b:	e9 30 fe ff ff       	jmpq   eb0 <.plt>

0000000000001080 <fwrite@plt>:
    1080:	ff 25 72 20 20 00    	jmpq   *0x202072(%rip)        # 2030f8 <fwrite@GLIBC_2.2.5>
    1086:	68 1c 00 00 00       	pushq  $0x1c
    108b:	e9 20 fe ff ff       	jmpq   eb0 <.plt>

0000000000001090 <sleep@plt>:
    1090:	ff 25 6a 20 20 00    	jmpq   *0x20206a(%rip)        # 203100 <sleep@GLIBC_2.2.5>
    1096:	68 1d 00 00 00       	pushq  $0x1d
    109b:	e9 10 fe ff ff       	jmpq   eb0 <.plt>

00000000000010a0 <__ctype_b_loc@plt>:
    10a0:	ff 25 62 20 20 00    	jmpq   *0x202062(%rip)        # 203108 <__ctype_b_loc@GLIBC_2.3>
    10a6:	68 1e 00 00 00       	pushq  $0x1e
    10ab:	e9 00 fe ff ff       	jmpq   eb0 <.plt>

00000000000010b0 <socket@plt>:
    10b0:	ff 25 5a 20 20 00    	jmpq   *0x20205a(%rip)        # 203110 <socket@GLIBC_2.2.5>
    10b6:	68 1f 00 00 00       	pushq  $0x1f
    10bb:	e9 f0 fd ff ff       	jmpq   eb0 <.plt>

Disassembly of section .plt.got:

00000000000010c0 <__cxa_finalize@plt>:
    10c0:	ff 25 32 1f 20 00    	jmpq   *0x201f32(%rip)        # 202ff8 <__cxa_finalize@GLIBC_2.2.5>
    10c6:	66 90                	xchg   %ax,%ax

Disassembly of section .text:

00000000000010d0 <_start>:
    10d0:	31 ed                	xor    %ebp,%ebp
    10d2:	49 89 d1             	mov    %rdx,%r9
    10d5:	5e                   	pop    %rsi
    10d6:	48 89 e2             	mov    %rsp,%rdx
    10d9:	48 83 e4 f0          	and    $0xfffffffffffffff0,%rsp
    10dd:	50                   	push   %rax
    10de:	54                   	push   %rsp
    10df:	4c 8d 05 ea 10 00 00 	lea    0x10ea(%rip),%r8        # 21d0 <__libc_csu_fini>
    10e6:	48 8d 0d 73 10 00 00 	lea    0x1073(%rip),%rcx        # 2160 <__libc_csu_init>
    10ed:	48 8d 3d 0c 01 00 00 	lea    0x10c(%rip),%rdi        # 1200 <main>
    10f4:	ff 15 de 1e 20 00    	callq  *0x201ede(%rip)        # 202fd8 <__libc_start_main@GLIBC_2.2.5>
    10fa:	f4                   	hlt    
    10fb:	0f 1f 44 00 00       	nopl   0x0(%rax,%rax,1)

0000000000001100 <deregister_tm_clones>:
    1100:	48 8d 3d 99 26 20 00 	lea    0x202699(%rip),%rdi        # 2037a0 <stdout@@GLIBC_2.2.5>
    1107:	48 8d 05 99 26 20 00 	lea    0x202699(%rip),%rax        # 2037a7 <__TMC_END__+0x7>
    110e:	55                   	push   %rbp
    110f:	48 29 f8             	sub    %rdi,%rax
    1112:	48 89 e5             	mov    %rsp,%rbp
    1115:	48 83 f8 0e          	cmp    $0xe,%rax
    1119:	76 15                	jbe    1130 <deregister_tm_clones+0x30>
    111b:	48 8b 05 ae 1e 20 00 	mov    0x201eae(%rip),%rax        # 202fd0 <_ITM_deregisterTMCloneTable>
    1122:	48 85 c0             	test   %rax,%rax
    1125:	74 09                	je     1130 <deregister_tm_clones+0x30>
    1127:	5d                   	pop    %rbp
    1128:	ff e0                	jmpq   *%rax
    112a:	66 0f 1f 44 00 00    	nopw   0x0(%rax,%rax,1)
    1130:	5d                   	pop    %rbp
    1131:	c3                   	retq   
    1132:	0f 1f 40 00          	nopl   0x0(%rax)
    1136:	66 2e 0f 1f 84 00 00 	nopw   %cs:0x0(%rax,%rax,1)
    113d:	00 00 00 

0000000000001140 <register_tm_clones>:
    1140:	48 8d 3d 59 26 20 00 	lea    0x202659(%rip),%rdi        # 2037a0 <stdout@@GLIBC_2.2.5>
    1147:	48 8d 35 52 26 20 00 	lea    0x202652(%rip),%rsi        # 2037a0 <stdout@@GLIBC_2.2.5>
    114e:	55                   	push   %rbp
    114f:	48 29 fe             	sub    %rdi,%rsi
    1152:	48 89 e5             	mov    %rsp,%rbp
    1155:	48 c1 fe 03          	sar    $0x3,%rsi
    1159:	48 89 f0             	mov    %rsi,%rax
    115c:	48 c1 e8 3f          	shr    $0x3f,%rax
    1160:	48 01 c6             	add    %rax,%rsi
    1163:	48 d1 fe             	sar    %rsi
    1166:	74 18                	je     1180 <register_tm_clones+0x40>
    1168:	48 8b 05 81 1e 20 00 	mov    0x201e81(%rip),%rax        # 202ff0 <_ITM_registerTMCloneTable>
    116f:	48 85 c0             	test   %rax,%rax
    1172:	74 0c                	je     1180 <register_tm_clones+0x40>
    1174:	5d                   	pop    %rbp
    1175:	ff e0                	jmpq   *%rax
    1177:	66 0f 1f 84 00 00 00 	nopw   0x0(%rax,%rax,1)
    117e:	00 00 
    1180:	5d                   	pop    %rbp
    1181:	c3                   	retq   
    1182:	0f 1f 40 00          	nopl   0x0(%rax)
    1186:	66 2e 0f 1f 84 00 00 	nopw   %cs:0x0(%rax,%rax,1)
    118d:	00 00 00 

0000000000001190 <__do_global_dtors_aux>:
    1190:	80 3d 21 26 20 00 00 	cmpb   $0x0,0x202621(%rip)        # 2037b8 <completed.6972>
    1197:	75 27                	jne    11c0 <__do_global_dtors_aux+0x30>
    1199:	48 83 3d 57 1e 20 00 	cmpq   $0x0,0x201e57(%rip)        # 202ff8 <__cxa_finalize@GLIBC_2.2.5>
    11a0:	00 
    11a1:	55                   	push   %rbp
    11a2:	48 89 e5             	mov    %rsp,%rbp
    11a5:	74 0c                	je     11b3 <__do_global_dtors_aux+0x23>
    11a7:	48 8b 3d 7a 1f 20 00 	mov    0x201f7a(%rip),%rdi        # 203128 <__dso_handle>
    11ae:	e8 0d ff ff ff       	callq  10c0 <__cxa_finalize@plt>
    11b3:	e8 48 ff ff ff       	callq  1100 <deregister_tm_clones>
    11b8:	5d                   	pop    %rbp
    11b9:	c6 05 f8 25 20 00 01 	movb   $0x1,0x2025f8(%rip)        # 2037b8 <completed.6972>
    11c0:	f3 c3                	repz retq 
    11c2:	0f 1f 40 00          	nopl   0x0(%rax)
    11c6:	66 2e 0f 1f 84 00 00 	nopw   %cs:0x0(%rax,%rax,1)
    11cd:	00 00 00 

00000000000011d0 <frame_dummy>:
    11d0:	48 8d 3d 11 1c 20 00 	lea    0x201c11(%rip),%rdi        # 202de8 <__JCR_END__>
    11d7:	48 83 3f 00          	cmpq   $0x0,(%rdi)
    11db:	75 0b                	jne    11e8 <frame_dummy+0x18>
    11dd:	e9 5e ff ff ff       	jmpq   1140 <register_tm_clones>
    11e2:	66 0f 1f 44 00 00    	nopw   0x0(%rax,%rax,1)
    11e8:	48 8b 05 f9 1d 20 00 	mov    0x201df9(%rip),%rax        # 202fe8 <_Jv_RegisterClasses>
    11ef:	48 85 c0             	test   %rax,%rax
    11f2:	74 e9                	je     11dd <frame_dummy+0xd>
    11f4:	55                   	push   %rbp
    11f5:	48 89 e5             	mov    %rsp,%rbp
    11f8:	ff d0                	callq  *%rax
    11fa:	5d                   	pop    %rbp
    11fb:	e9 40 ff ff ff       	jmpq   1140 <register_tm_clones>

0000000000001200 <main>:
    1200:	53                   	push   %rbx
    1201:	83 ff 01             	cmp    $0x1,%edi
    1204:	0f 84 f8 00 00 00    	je     1302 <main+0x102>
    120a:	48 89 f3             	mov    %rsi,%rbx
    120d:	83 ff 02             	cmp    $0x2,%edi
    1210:	0f 85 1c 01 00 00    	jne    1332 <main+0x132>
    1216:	48 8b 7e 08          	mov    0x8(%rsi),%rdi
    121a:	48 8d 35 f9 13 00 00 	lea    0x13f9(%rip),%rsi        # 261a <array.3088+0x25a>
    1221:	e8 0a fe ff ff       	callq  1030 <fopen@plt>
    1226:	48 89 05 93 25 20 00 	mov    %rax,0x202593(%rip)        # 2037c0 <infile>
    122d:	48 85 c0             	test   %rax,%rax
    1230:	0f 84 df 00 00 00    	je     1315 <main+0x115>
    1236:	e8 2a 06 00 00       	callq  1865 <initialize_bomb>
    123b:	48 8d 3d 26 10 00 00 	lea    0x1026(%rip),%rdi        # 2268 <_IO_stdin_used+0x88>
    1242:	e8 a9 fc ff ff       	callq  ef0 <puts@plt>
    1247:	48 8d 3d 5a 10 00 00 	lea    0x105a(%rip),%rdi        # 22a8 <_IO_stdin_used+0xc8>
    124e:	e8 9d fc ff ff       	callq  ef0 <puts@plt>
    1253:	e8 68 0d 00 00       	callq  1fc0 <read_line>
    1258:	48 89 c7             	mov    %rax,%rdi
    125b:	e8 f0 00 00 00       	callq  1350 <phase_1>
    1260:	e8 5c 0e 00 00       	callq  20c1 <phase_defused>
    1265:	48 8d 3d 6c 10 00 00 	lea    0x106c(%rip),%rdi        # 22d8 <_IO_stdin_used+0xf8>
    126c:	e8 7f fc ff ff       	callq  ef0 <puts@plt>
    1271:	e8 4a 0d 00 00       	callq  1fc0 <read_line>
    1276:	48 89 c7             	mov    %rax,%rdi
    1279:	e8 f2 00 00 00       	callq  1370 <phase_2>
    127e:	e8 3e 0e 00 00       	callq  20c1 <phase_defused>
    1283:	48 8d 3d 91 0f 00 00 	lea    0xf91(%rip),%rdi        # 221b <_IO_stdin_used+0x3b>
    128a:	e8 61 fc ff ff       	callq  ef0 <puts@plt>
    128f:	e8 2c 0d 00 00       	callq  1fc0 <read_line>
    1294:	48 89 c7             	mov    %rax,%rdi
    1297:	e8 0f 01 00 00       	callq  13ab <phase_3>
    129c:	e8 20 0e 00 00       	callq  20c1 <phase_defused>
    12a1:	48 8d 3d 91 0f 00 00 	lea    0xf91(%rip),%rdi        # 2239 <_IO_stdin_used+0x59>
    12a8:	e8 43 fc ff ff       	callq  ef0 <puts@plt>
    12ad:	e8 0e 0d 00 00       	callq  1fc0 <read_line>
    12b2:	48 89 c7             	mov    %rax,%rdi
    12b5:	e8 a4 01 00 00       	callq  145e <phase_4>
    12ba:	e8 02 0e 00 00       	callq  20c1 <phase_defused>
    12bf:	48 8d 3d 42 10 00 00 	lea    0x1042(%rip),%rdi        # 2308 <_IO_stdin_used+0x128>
    12c6:	e8 25 fc ff ff       	callq  ef0 <puts@plt>
    12cb:	e8 f0 0c 00 00       	callq  1fc0 <read_line>
    12d0:	48 89 c7             	mov    %rax,%rdi
    12d3:	e8 cd 01 00 00       	callq  14a5 <phase_5>
    12d8:	e8 e4 0d 00 00       	callq  20c1 <phase_defused>
    12dd:	48 8d 3d 64 0f 00 00 	lea    0xf64(%rip),%rdi        # 2248 <_IO_stdin_used+0x68>
    12e4:	e8 07 fc ff ff       	callq  ef0 <puts@plt>
    12e9:	e8 d2 0c 00 00       	callq  1fc0 <read_line>
    12ee:	48 89 c7             	mov    %rax,%rdi
    12f1:	e8 27 02 00 00       	callq  151d <phase_6>
    12f6:	e8 c6 0d 00 00       	callq  20c1 <phase_defused>
    12fb:	b8 00 00 00 00       	mov    $0x0,%eax
    1300:	5b                   	pop    %rbx
    1301:	c3                   	retq   
    1302:	48 8b 05 a7 24 20 00 	mov    0x2024a7(%rip),%rax        # 2037b0 <stdin@@GLIBC_2.2.5>
    1309:	48 89 05 b0 24 20 00 	mov    %rax,0x2024b0(%rip)        # 2037c0 <infile>
    1310:	e9 21 ff ff ff       	jmpq   1236 <main+0x36>
    1315:	48 8b 53 08          	mov    0x8(%rbx),%rdx
    1319:	48 8b 33             	mov    (%rbx),%rsi
    131c:	48 8d 3d c1 0e 00 00 	lea    0xec1(%rip),%rdi        # 21e4 <_IO_stdin_used+0x4>
    1323:	e8 08 fc ff ff       	callq  f30 <printf@plt>
    1328:	bf 08 00 00 00       	mov    $0x8,%edi
    132d:	e8 2e fd ff ff       	callq  1060 <exit@plt>
    1332:	48 8b 36             	mov    (%rsi),%rsi
    1335:	48 8d 3d c5 0e 00 00 	lea    0xec5(%rip),%rdi        # 2201 <_IO_stdin_used+0x21>
    133c:	b8 00 00 00 00       	mov    $0x0,%eax
    1341:	e8 ea fb ff ff       	callq  f30 <printf@plt>
    1346:	bf 08 00 00 00       	mov    $0x8,%edi
    134b:	e8 10 fd ff ff       	callq  1060 <exit@plt>

0000000000001350 <phase_1>:
    1350:	48 83 ec 08          	sub    $0x8,%rsp
    1354:	48 8d 35 d5 0f 00 00 	lea    0xfd5(%rip),%rsi        # 2330 <_IO_stdin_used+0x150>
    135b:	e8 d3 03 00 00       	callq  1733 <strings_not_equal>
    1360:	85 c0                	test   %eax,%eax
    1362:	75 05                	jne    1369 <phase_1+0x19>
    1364:	48 83 c4 08          	add    $0x8,%rsp
    1368:	c3                   	retq   
    1369:	e8 d5 0b 00 00       	callq  1f43 <explode_bomb>
    136e:	eb f4                	jmp    1364 <phase_1+0x14>

0000000000001370 <phase_2>:
    1370:	55                   	push   %rbp
    1371:	53                   	push   %rbx
    1372:	48 83 ec 28          	sub    $0x28,%rsp
    1376:	48 89 e5             	mov    %rsp,%rbp
    1379:	48 89 e6             	mov    %rsp,%rsi
    137c:	e8 fe 0b 00 00       	callq  1f7f <read_six_numbers>
    1381:	48 89 e3             	mov    %rsp,%rbx
    1384:	48 83 c5 14          	add    $0x14,%rbp
    1388:	eb 09                	jmp    1393 <phase_2+0x23>
    138a:	48 83 c3 04          	add    $0x4,%rbx
    138e:	48 39 eb             	cmp    %rbp,%rbx
    1391:	74 11                	je     13a4 <phase_2+0x34>
    1393:	8b 03                	mov    (%rbx),%eax
    1395:	83 c0 05             	add    $0x5,%eax
    1398:	39 43 04             	cmp    %eax,0x4(%rbx)
    139b:	74 ed                	je     138a <phase_2+0x1a>
    139d:	e8 a1 0b 00 00       	callq  1f43 <explode_bomb>
    13a2:	eb e6                	jmp    138a <phase_2+0x1a>
    13a4:	48 83 c4 28          	add    $0x28,%rsp
    13a8:	5b                   	pop    %rbx
    13a9:	5d                   	pop    %rbp
    13aa:	c3                   	retq   

00000000000013ab <phase_3>:
    13ab:	48 83 ec 18          	sub    $0x18,%rsp
    13af:	48 8d 4c 24 08       	lea    0x8(%rsp),%rcx
    13b4:	48 8d 54 24 0c       	lea    0xc(%rsp),%rdx
    13b9:	48 8d 35 63 13 00 00 	lea    0x1363(%rip),%rsi        # 2723 <array.3088+0x363>
    13c0:	b8 00 00 00 00       	mov    $0x0,%eax
    13c5:	e8 36 fc ff ff       	callq  1000 <__isoc99_sscanf@plt>
    13ca:	83 f8 01             	cmp    $0x1,%eax
    13cd:	7e 1b                	jle    13ea <phase_3+0x3f>
    13cf:	83 7c 24 0c 07       	cmpl   $0x7,0xc(%rsp)
    13d4:	77 4c                	ja     1422 <phase_3+0x77>
    13d6:	8b 44 24 0c          	mov    0xc(%rsp),%eax
    13da:	48 8d 15 bf 0f 00 00 	lea    0xfbf(%rip),%rdx        # 23a0 <_IO_stdin_used+0x1c0>
    13e1:	48 63 04 82          	movslq (%rdx,%rax,4),%rax
    13e5:	48 01 d0             	add    %rdx,%rax
    13e8:	ff e0                	jmpq   *%rax
    13ea:	e8 54 0b 00 00       	callq  1f43 <explode_bomb>
    13ef:	eb de                	jmp    13cf <phase_3+0x24>
    13f1:	b8 d4 03 00 00       	mov    $0x3d4,%eax
    13f6:	eb 3b                	jmp    1433 <phase_3+0x88>
    13f8:	b8 97 01 00 00       	mov    $0x197,%eax
    13fd:	eb 34                	jmp    1433 <phase_3+0x88>
    13ff:	b8 6c 03 00 00       	mov    $0x36c,%eax
    1404:	eb 2d                	jmp    1433 <phase_3+0x88>
    1406:	b8 f8 00 00 00       	mov    $0xf8,%eax
    140b:	eb 26                	jmp    1433 <phase_3+0x88>
    140d:	b8 35 03 00 00       	mov    $0x335,%eax
    1412:	eb 1f                	jmp    1433 <phase_3+0x88>
    1414:	b8 7f 00 00 00       	mov    $0x7f,%eax
    1419:	eb 18                	jmp    1433 <phase_3+0x88>
    141b:	b8 61 01 00 00       	mov    $0x161,%eax
    1420:	eb 11                	jmp    1433 <phase_3+0x88>
    1422:	e8 1c 0b 00 00       	callq  1f43 <explode_bomb>
    1427:	b8 00 00 00 00       	mov    $0x0,%eax
    142c:	eb 05                	jmp    1433 <phase_3+0x88>
    142e:	b8 d0 01 00 00       	mov    $0x1d0,%eax
    1433:	3b 44 24 08          	cmp    0x8(%rsp),%eax
    1437:	74 05                	je     143e <phase_3+0x93>
    1439:	e8 05 0b 00 00       	callq  1f43 <explode_bomb>
    143e:	48 83 c4 18          	add    $0x18,%rsp
    1442:	c3                   	retq   

0000000000001443 <func4>:
    1443:	b8 01 00 00 00       	mov    $0x1,%eax
    1448:	83 ff 01             	cmp    $0x1,%edi
    144b:	7e 0f                	jle    145c <func4+0x19>
    144d:	53                   	push   %rbx
    144e:	89 fb                	mov    %edi,%ebx
    1450:	8d 7f ff             	lea    -0x1(%rdi),%edi
    1453:	e8 eb ff ff ff       	callq  1443 <func4>
    1458:	0f af c3             	imul   %ebx,%eax
    145b:	5b                   	pop    %rbx
    145c:	f3 c3                	repz retq 

000000000000145e <phase_4>:
    145e:	48 83 ec 18          	sub    $0x18,%rsp
    1462:	48 8d 54 24 0c       	lea    0xc(%rsp),%rdx
    1467:	48 8d 35 b8 12 00 00 	lea    0x12b8(%rip),%rsi        # 2726 <array.3088+0x366>
    146e:	b8 00 00 00 00       	mov    $0x0,%eax
    1473:	e8 88 fb ff ff       	callq  1000 <__isoc99_sscanf@plt>
    1478:	83 f8 01             	cmp    $0x1,%eax
    147b:	74 1f                	je     149c <phase_4+0x3e>
    147d:	e8 c1 0a 00 00       	callq  1f43 <explode_bomb>
    1482:	8b 7c 24 0c          	mov    0xc(%rsp),%edi
    1486:	e8 b8 ff ff ff       	callq  1443 <func4>
    148b:	3d 00 5f 37 00       	cmp    $0x375f00,%eax
    1490:	74 05                	je     1497 <phase_4+0x39>
    1492:	e8 ac 0a 00 00       	callq  1f43 <explode_bomb>
    1497:	48 83 c4 18          	add    $0x18,%rsp
    149b:	c3                   	retq   
    149c:	83 7c 24 0c 00       	cmpl   $0x0,0xc(%rsp)
    14a1:	7f df                	jg     1482 <phase_4+0x24>
    14a3:	eb d8                	jmp    147d <phase_4+0x1f>

00000000000014a5 <phase_5>:
    14a5:	48 83 ec 18          	sub    $0x18,%rsp
    14a9:	48 8d 4c 24 08       	lea    0x8(%rsp),%rcx
    14ae:	48 8d 54 24 0c       	lea    0xc(%rsp),%rdx
    14b3:	48 8d 35 69 12 00 00 	lea    0x1269(%rip),%rsi        # 2723 <array.3088+0x363>
    14ba:	b8 00 00 00 00       	mov    $0x0,%eax
    14bf:	e8 3c fb ff ff       	callq  1000 <__isoc99_sscanf@plt>
    14c4:	83 f8 01             	cmp    $0x1,%eax
    14c7:	7e 4d                	jle    1516 <phase_5+0x71>
    14c9:	8b 44 24 0c          	mov    0xc(%rsp),%eax
    14cd:	83 e0 0f             	and    $0xf,%eax
    14d0:	89 44 24 0c          	mov    %eax,0xc(%rsp)
    14d4:	83 f8 0f             	cmp    $0xf,%eax
    14d7:	74 33                	je     150c <phase_5+0x67>
    14d9:	b9 00 00 00 00       	mov    $0x0,%ecx
    14de:	ba 00 00 00 00       	mov    $0x0,%edx
    14e3:	48 8d 35 d6 0e 00 00 	lea    0xed6(%rip),%rsi        # 23c0 <array.3088>
    14ea:	83 c2 01             	add    $0x1,%edx
    14ed:	48 98                	cltq   
    14ef:	8b 04 86             	mov    (%rsi,%rax,4),%eax
    14f2:	01 c1                	add    %eax,%ecx
    14f4:	83 f8 0f             	cmp    $0xf,%eax
    14f7:	75 f1                	jne    14ea <phase_5+0x45>
    14f9:	c7 44 24 0c 0f 00 00 	movl   $0xf,0xc(%rsp)
    1500:	00 
    1501:	83 fa 0c             	cmp    $0xc,%edx
    1504:	75 06                	jne    150c <phase_5+0x67>
    1506:	3b 4c 24 08          	cmp    0x8(%rsp),%ecx
    150a:	74 05                	je     1511 <phase_5+0x6c>
    150c:	e8 32 0a 00 00       	callq  1f43 <explode_bomb>
    1511:	48 83 c4 18          	add    $0x18,%rsp
    1515:	c3                   	retq   
    1516:	e8 28 0a 00 00       	callq  1f43 <explode_bomb>
    151b:	eb ac                	jmp    14c9 <phase_5+0x24>

000000000000151d <phase_6>:
    151d:	41 55                	push   %r13
    151f:	41 54                	push   %r12
    1521:	55                   	push   %rbp
    1522:	53                   	push   %rbx
    1523:	48 83 ec 58          	sub    $0x58,%rsp
    1527:	4c 8d 64 24 30       	lea    0x30(%rsp),%r12
    152c:	4c 89 e6             	mov    %r12,%rsi
    152f:	e8 4b 0a 00 00       	callq  1f7f <read_six_numbers>
    1534:	41 bd 00 00 00 00    	mov    $0x0,%r13d
    153a:	eb 25                	jmp    1561 <phase_6+0x44>
    153c:	41 83 c5 01          	add    $0x1,%r13d
    1540:	41 83 fd 06          	cmp    $0x6,%r13d
    1544:	74 38                	je     157e <phase_6+0x61>
    1546:	44 89 eb             	mov    %r13d,%ebx
    1549:	48 63 c3             	movslq %ebx,%rax
    154c:	8b 44 84 30          	mov    0x30(%rsp,%rax,4),%eax
    1550:	39 45 00             	cmp    %eax,0x0(%rbp)
    1553:	74 22                	je     1577 <phase_6+0x5a>
    1555:	83 c3 01             	add    $0x1,%ebx
    1558:	83 fb 05             	cmp    $0x5,%ebx
    155b:	7e ec                	jle    1549 <phase_6+0x2c>
    155d:	49 83 c4 04          	add    $0x4,%r12
    1561:	4c 89 e5             	mov    %r12,%rbp
    1564:	41 8b 04 24          	mov    (%r12),%eax
    1568:	83 e8 01             	sub    $0x1,%eax
    156b:	83 f8 05             	cmp    $0x5,%eax
    156e:	76 cc                	jbe    153c <phase_6+0x1f>
    1570:	e8 ce 09 00 00       	callq  1f43 <explode_bomb>
    1575:	eb c5                	jmp    153c <phase_6+0x1f>
    1577:	e8 c7 09 00 00       	callq  1f43 <explode_bomb>
    157c:	eb d7                	jmp    1555 <phase_6+0x38>
    157e:	be 00 00 00 00       	mov    $0x0,%esi
    1583:	8b 4c 34 30          	mov    0x30(%rsp,%rsi,1),%ecx
    1587:	b8 01 00 00 00       	mov    $0x1,%eax
    158c:	48 8d 15 bd 21 20 00 	lea    0x2021bd(%rip),%rdx        # 203750 <node1>
    1593:	83 f9 01             	cmp    $0x1,%ecx
    1596:	7e 0b                	jle    15a3 <phase_6+0x86>
    1598:	48 8b 52 08          	mov    0x8(%rdx),%rdx
    159c:	83 c0 01             	add    $0x1,%eax
    159f:	39 c8                	cmp    %ecx,%eax
    15a1:	75 f5                	jne    1598 <phase_6+0x7b>
    15a3:	48 89 14 74          	mov    %rdx,(%rsp,%rsi,2)
    15a7:	48 83 c6 04          	add    $0x4,%rsi
    15ab:	48 83 fe 18          	cmp    $0x18,%rsi
    15af:	75 d2                	jne    1583 <phase_6+0x66>
    15b1:	48 8b 1c 24          	mov    (%rsp),%rbx
    15b5:	48 89 e0             	mov    %rsp,%rax
    15b8:	48 8d 74 24 28       	lea    0x28(%rsp),%rsi
    15bd:	48 89 d9             	mov    %rbx,%rcx
    15c0:	48 8b 50 08          	mov    0x8(%rax),%rdx
    15c4:	48 89 51 08          	mov    %rdx,0x8(%rcx)
    15c8:	48 83 c0 08          	add    $0x8,%rax
    15cc:	48 89 d1             	mov    %rdx,%rcx
    15cf:	48 39 c6             	cmp    %rax,%rsi
    15d2:	75 ec                	jne    15c0 <phase_6+0xa3>
    15d4:	48 c7 42 08 00 00 00 	movq   $0x0,0x8(%rdx)
    15db:	00 
    15dc:	bd 05 00 00 00       	mov    $0x5,%ebp
    15e1:	eb 09                	jmp    15ec <phase_6+0xcf>
    15e3:	48 8b 5b 08          	mov    0x8(%rbx),%rbx
    15e7:	83 ed 01             	sub    $0x1,%ebp
    15ea:	74 11                	je     15fd <phase_6+0xe0>
    15ec:	48 8b 43 08          	mov    0x8(%rbx),%rax
    15f0:	8b 00                	mov    (%rax),%eax
    15f2:	39 03                	cmp    %eax,(%rbx)
    15f4:	7d ed                	jge    15e3 <phase_6+0xc6>
    15f6:	e8 48 09 00 00       	callq  1f43 <explode_bomb>
    15fb:	eb e6                	jmp    15e3 <phase_6+0xc6>
    15fd:	48 83 c4 58          	add    $0x58,%rsp
    1601:	5b                   	pop    %rbx
    1602:	5d                   	pop    %rbp
    1603:	41 5c                	pop    %r12
    1605:	41 5d                	pop    %r13
    1607:	c3                   	retq   

0000000000001608 <fun7>:
    1608:	48 85 ff             	test   %rdi,%rdi
    160b:	74 32                	je     163f <fun7+0x37>
    160d:	48 83 ec 08          	sub    $0x8,%rsp
    1611:	8b 17                	mov    (%rdi),%edx
    1613:	39 f2                	cmp    %esi,%edx
    1615:	7f 1b                	jg     1632 <fun7+0x2a>
    1617:	b8 00 00 00 00       	mov    $0x0,%eax
    161c:	39 f2                	cmp    %esi,%edx
    161e:	74 0d                	je     162d <fun7+0x25>
    1620:	48 8b 7f 10          	mov    0x10(%rdi),%rdi
    1624:	e8 df ff ff ff       	callq  1608 <fun7>
    1629:	8d 44 00 01          	lea    0x1(%rax,%rax,1),%eax
    162d:	48 83 c4 08          	add    $0x8,%rsp
    1631:	c3                   	retq   
    1632:	48 8b 7f 08          	mov    0x8(%rdi),%rdi
    1636:	e8 cd ff ff ff       	callq  1608 <fun7>
    163b:	01 c0                	add    %eax,%eax
    163d:	eb ee                	jmp    162d <fun7+0x25>
    163f:	b8 ff ff ff ff       	mov    $0xffffffff,%eax
    1644:	c3                   	retq   

0000000000001645 <secret_phase>:
    1645:	53                   	push   %rbx
    1646:	e8 75 09 00 00       	callq  1fc0 <read_line>
    164b:	ba 0a 00 00 00       	mov    $0xa,%edx
    1650:	be 00 00 00 00       	mov    $0x0,%esi
    1655:	48 89 c7             	mov    %rax,%rdi
    1658:	e8 73 f9 ff ff       	callq  fd0 <strtol@plt>
    165d:	48 89 c3             	mov    %rax,%rbx
    1660:	8d 40 ff             	lea    -0x1(%rax),%eax
    1663:	3d e8 03 00 00       	cmp    $0x3e8,%eax
    1668:	77 2b                	ja     1695 <secret_phase+0x50>
    166a:	89 de                	mov    %ebx,%esi
    166c:	48 8d 3d fd 1f 20 00 	lea    0x201ffd(%rip),%rdi        # 203670 <n1>
    1673:	e8 90 ff ff ff       	callq  1608 <fun7>
    1678:	83 f8 04             	cmp    $0x4,%eax
    167b:	74 05                	je     1682 <secret_phase+0x3d>
    167d:	e8 c1 08 00 00       	callq  1f43 <explode_bomb>
    1682:	48 8d 3d df 0c 00 00 	lea    0xcdf(%rip),%rdi        # 2368 <_IO_stdin_used+0x188>
    1689:	e8 62 f8 ff ff       	callq  ef0 <puts@plt>
    168e:	e8 2e 0a 00 00       	callq  20c1 <phase_defused>
    1693:	5b                   	pop    %rbx
    1694:	c3                   	retq   
    1695:	e8 a9 08 00 00       	callq  1f43 <explode_bomb>
    169a:	eb ce                	jmp    166a <secret_phase+0x25>

000000000000169c <sig_handler>:
    169c:	48 83 ec 08          	sub    $0x8,%rsp
    16a0:	48 8d 3d 59 0d 00 00 	lea    0xd59(%rip),%rdi        # 2400 <array.3088+0x40>
    16a7:	e8 44 f8 ff ff       	callq  ef0 <puts@plt>
    16ac:	bf 03 00 00 00       	mov    $0x3,%edi
    16b1:	e8 da f9 ff ff       	callq  1090 <sleep@plt>
    16b6:	48 8d 3d 7b 0e 00 00 	lea    0xe7b(%rip),%rdi        # 2538 <array.3088+0x178>
    16bd:	b8 00 00 00 00       	mov    $0x0,%eax
    16c2:	e8 69 f8 ff ff       	callq  f30 <printf@plt>
    16c7:	48 8b 3d d2 20 20 00 	mov    0x2020d2(%rip),%rdi        # 2037a0 <stdout@@GLIBC_2.2.5>
    16ce:	e8 1d f9 ff ff       	callq  ff0 <fflush@plt>
    16d3:	bf 01 00 00 00       	mov    $0x1,%edi
    16d8:	e8 b3 f9 ff ff       	callq  1090 <sleep@plt>
    16dd:	48 8d 3d 5c 0e 00 00 	lea    0xe5c(%rip),%rdi        # 2540 <array.3088+0x180>
    16e4:	e8 07 f8 ff ff       	callq  ef0 <puts@plt>
    16e9:	bf 10 00 00 00       	mov    $0x10,%edi
    16ee:	e8 6d f9 ff ff       	callq  1060 <exit@plt>

00000000000016f3 <invalid_phase>:
    16f3:	48 83 ec 08          	sub    $0x8,%rsp
    16f7:	48 89 fe             	mov    %rdi,%rsi
    16fa:	48 8d 3d 47 0e 00 00 	lea    0xe47(%rip),%rdi        # 2548 <array.3088+0x188>
    1701:	b8 00 00 00 00       	mov    $0x0,%eax
    1706:	e8 25 f8 ff ff       	callq  f30 <printf@plt>
    170b:	bf 08 00 00 00       	mov    $0x8,%edi
    1710:	e8 4b f9 ff ff       	callq  1060 <exit@plt>

0000000000001715 <string_length>:
    1715:	80 3f 00             	cmpb   $0x0,(%rdi)
    1718:	74 13                	je     172d <string_length+0x18>
    171a:	b8 00 00 00 00       	mov    $0x0,%eax
    171f:	48 83 c7 01          	add    $0x1,%rdi
    1723:	83 c0 01             	add    $0x1,%eax
    1726:	80 3f 00             	cmpb   $0x0,(%rdi)
    1729:	75 f4                	jne    171f <string_length+0xa>
    172b:	f3 c3                	repz retq 
    172d:	b8 00 00 00 00       	mov    $0x0,%eax
    1732:	c3                   	retq   

0000000000001733 <strings_not_equal>:
    1733:	41 54                	push   %r12
    1735:	55                   	push   %rbp
    1736:	53                   	push   %rbx
    1737:	48 89 fb             	mov    %rdi,%rbx
    173a:	48 89 f5             	mov    %rsi,%rbp
    173d:	e8 d3 ff ff ff       	callq  1715 <string_length>
    1742:	41 89 c4             	mov    %eax,%r12d
    1745:	48 89 ef             	mov    %rbp,%rdi
    1748:	e8 c8 ff ff ff       	callq  1715 <string_length>
    174d:	ba 01 00 00 00       	mov    $0x1,%edx
    1752:	41 39 c4             	cmp    %eax,%r12d
    1755:	74 07                	je     175e <strings_not_equal+0x2b>
    1757:	89 d0                	mov    %edx,%eax
    1759:	5b                   	pop    %rbx
    175a:	5d                   	pop    %rbp
    175b:	41 5c                	pop    %r12
    175d:	c3                   	retq   
    175e:	0f b6 03             	movzbl (%rbx),%eax
    1761:	84 c0                	test   %al,%al
    1763:	74 27                	je     178c <strings_not_equal+0x59>
    1765:	3a 45 00             	cmp    0x0(%rbp),%al
    1768:	75 29                	jne    1793 <strings_not_equal+0x60>
    176a:	48 83 c3 01          	add    $0x1,%rbx
    176e:	48 83 c5 01          	add    $0x1,%rbp
    1772:	0f b6 03             	movzbl (%rbx),%eax
    1775:	84 c0                	test   %al,%al
    1777:	74 0c                	je     1785 <strings_not_equal+0x52>
    1779:	3a 45 00             	cmp    0x0(%rbp),%al
    177c:	74 ec                	je     176a <strings_not_equal+0x37>
    177e:	ba 01 00 00 00       	mov    $0x1,%edx
    1783:	eb d2                	jmp    1757 <strings_not_equal+0x24>
    1785:	ba 00 00 00 00       	mov    $0x0,%edx
    178a:	eb cb                	jmp    1757 <strings_not_equal+0x24>
    178c:	ba 00 00 00 00       	mov    $0x0,%edx
    1791:	eb c4                	jmp    1757 <strings_not_equal+0x24>
    1793:	ba 01 00 00 00       	mov    $0x1,%edx
    1798:	eb bd                	jmp    1757 <strings_not_equal+0x24>

000000000000179a <open_clientfd>:
    179a:	41 54                	push   %r12
    179c:	55                   	push   %rbp
    179d:	53                   	push   %rbx
    179e:	48 83 ec 10          	sub    $0x10,%rsp
    17a2:	49 89 fc             	mov    %rdi,%r12
    17a5:	89 f3                	mov    %esi,%ebx
    17a7:	ba 00 00 00 00       	mov    $0x0,%edx
    17ac:	be 01 00 00 00       	mov    $0x1,%esi
    17b1:	bf 02 00 00 00       	mov    $0x2,%edi
    17b6:	e8 f5 f8 ff ff       	callq  10b0 <socket@plt>
    17bb:	85 c0                	test   %eax,%eax
    17bd:	78 64                	js     1823 <open_clientfd+0x89>
    17bf:	89 c5                	mov    %eax,%ebp
    17c1:	4c 89 e7             	mov    %r12,%rdi
    17c4:	e8 e7 f7 ff ff       	callq  fb0 <gethostbyname@plt>
    17c9:	48 85 c0             	test   %rax,%rax
    17cc:	74 6b                	je     1839 <open_clientfd+0x9f>
    17ce:	48 c7 04 24 00 00 00 	movq   $0x0,(%rsp)
    17d5:	00 
    17d6:	48 c7 44 24 08 00 00 	movq   $0x0,0x8(%rsp)
    17dd:	00 00 
    17df:	66 c7 04 24 02 00    	movw   $0x2,(%rsp)
    17e5:	48 63 50 14          	movslq 0x14(%rax),%rdx
    17e9:	48 8d 74 24 04       	lea    0x4(%rsp),%rsi
    17ee:	48 8b 40 18          	mov    0x18(%rax),%rax
    17f2:	48 8b 38             	mov    (%rax),%rdi
    17f5:	e8 16 f8 ff ff       	callq  1010 <bcopy@plt>
    17fa:	89 de                	mov    %ebx,%esi
    17fc:	66 c1 ce 08          	ror    $0x8,%si
    1800:	66 89 74 24 02       	mov    %si,0x2(%rsp)
    1805:	ba 10 00 00 00       	mov    $0x10,%edx
    180a:	48 89 e6             	mov    %rsp,%rsi
    180d:	89 ef                	mov    %ebp,%edi
    180f:	e8 5c f8 ff ff       	callq  1070 <connect@plt>
    1814:	85 c0                	test   %eax,%eax
    1816:	78 37                	js     184f <open_clientfd+0xb5>
    1818:	89 e8                	mov    %ebp,%eax
    181a:	48 83 c4 10          	add    $0x10,%rsp
    181e:	5b                   	pop    %rbx
    181f:	5d                   	pop    %rbp
    1820:	41 5c                	pop    %r12
    1822:	c3                   	retq   
    1823:	48 8d 3d 2f 0d 00 00 	lea    0xd2f(%rip),%rdi        # 2559 <array.3088+0x199>
    182a:	e8 c1 f6 ff ff       	callq  ef0 <puts@plt>
    182f:	bf 08 00 00 00       	mov    $0x8,%edi
    1834:	e8 27 f8 ff ff       	callq  1060 <exit@plt>
    1839:	48 8d 3d 27 0d 00 00 	lea    0xd27(%rip),%rdi        # 2567 <array.3088+0x1a7>
    1840:	e8 ab f6 ff ff       	callq  ef0 <puts@plt>
    1845:	bf 08 00 00 00       	mov    $0x8,%edi
    184a:	e8 11 f8 ff ff       	callq  1060 <exit@plt>
    184f:	48 8d 3d 1f 0d 00 00 	lea    0xd1f(%rip),%rdi        # 2575 <array.3088+0x1b5>
    1856:	e8 95 f6 ff ff       	callq  ef0 <puts@plt>
    185b:	bf 08 00 00 00       	mov    $0x8,%edi
    1860:	e8 fb f7 ff ff       	callq  1060 <exit@plt>

0000000000001865 <initialize_bomb>:
    1865:	48 83 ec 08          	sub    $0x8,%rsp
    1869:	48 8d 35 2c fe ff ff 	lea    -0x1d4(%rip),%rsi        # 169c <sig_handler>
    1870:	bf 02 00 00 00       	mov    $0x2,%edi
    1875:	e8 26 f7 ff ff       	callq  fa0 <signal@plt>
    187a:	be 50 00 00 00       	mov    $0x50,%esi
    187f:	48 8d 3d fd 0c 00 00 	lea    0xcfd(%rip),%rdi        # 2583 <array.3088+0x1c3>
    1886:	e8 0f ff ff ff       	callq  179a <open_clientfd>
    188b:	89 c7                	mov    %eax,%edi
    188d:	e8 ce f6 ff ff       	callq  f60 <close@plt>
    1892:	48 83 c4 08          	add    $0x8,%rsp
    1896:	c3                   	retq   

0000000000001897 <blank_line>:
    1897:	55                   	push   %rbp
    1898:	53                   	push   %rbx
    1899:	48 83 ec 08          	sub    $0x8,%rsp
    189d:	48 89 fd             	mov    %rdi,%rbp
    18a0:	0f b6 5d 00          	movzbl 0x0(%rbp),%ebx
    18a4:	84 db                	test   %bl,%bl
    18a6:	74 1e                	je     18c6 <blank_line+0x2f>
    18a8:	e8 f3 f7 ff ff       	callq  10a0 <__ctype_b_loc@plt>
    18ad:	48 83 c5 01          	add    $0x1,%rbp
    18b1:	48 0f be db          	movsbq %bl,%rbx
    18b5:	48 8b 00             	mov    (%rax),%rax
    18b8:	f6 44 58 01 20       	testb  $0x20,0x1(%rax,%rbx,2)
    18bd:	75 e1                	jne    18a0 <blank_line+0x9>
    18bf:	b8 00 00 00 00       	mov    $0x0,%eax
    18c4:	eb 05                	jmp    18cb <blank_line+0x34>
    18c6:	b8 01 00 00 00       	mov    $0x1,%eax
    18cb:	48 83 c4 08          	add    $0x8,%rsp
    18cf:	5b                   	pop    %rbx
    18d0:	5d                   	pop    %rbp
    18d1:	c3                   	retq   

00000000000018d2 <skip>:
    18d2:	55                   	push   %rbp
    18d3:	53                   	push   %rbx
    18d4:	48 83 ec 08          	sub    $0x8,%rsp
    18d8:	48 8d 2d 01 1f 20 00 	lea    0x201f01(%rip),%rbp        # 2037e0 <input_strings>
    18df:	48 63 05 d6 1e 20 00 	movslq 0x201ed6(%rip),%rax        # 2037bc <num_input_strings>
    18e6:	48 8d 3c 80          	lea    (%rax,%rax,4),%rdi
    18ea:	48 c1 e7 04          	shl    $0x4,%rdi
    18ee:	48 01 ef             	add    %rbp,%rdi
    18f1:	48 8b 15 c8 1e 20 00 	mov    0x201ec8(%rip),%rdx        # 2037c0 <infile>
    18f8:	be 50 00 00 00       	mov    $0x50,%esi
    18fd:	e8 7e f6 ff ff       	callq  f80 <fgets@plt>
    1902:	48 89 c3             	mov    %rax,%rbx
    1905:	48 85 c0             	test   %rax,%rax
    1908:	74 0c                	je     1916 <skip+0x44>
    190a:	48 89 c7             	mov    %rax,%rdi
    190d:	e8 85 ff ff ff       	callq  1897 <blank_line>
    1912:	85 c0                	test   %eax,%eax
    1914:	75 c9                	jne    18df <skip+0xd>
    1916:	48 89 d8             	mov    %rbx,%rax
    1919:	48 83 c4 08          	add    $0x8,%rsp
    191d:	5b                   	pop    %rbx
    191e:	5d                   	pop    %rbp
    191f:	c3                   	retq   

0000000000001920 <writen>:
    1920:	41 56                	push   %r14
    1922:	41 55                	push   %r13
    1924:	41 54                	push   %r12
    1926:	55                   	push   %rbp
    1927:	53                   	push   %rbx
    1928:	49 89 d5             	mov    %rdx,%r13
    192b:	48 85 d2             	test   %rdx,%rdx
    192e:	74 3b                	je     196b <writen+0x4b>
    1930:	41 89 fc             	mov    %edi,%r12d
    1933:	48 89 f5             	mov    %rsi,%rbp
    1936:	48 89 d3             	mov    %rdx,%rbx
    1939:	41 be 00 00 00 00    	mov    $0x0,%r14d
    193f:	eb 08                	jmp    1949 <writen+0x29>
    1941:	48 01 c5             	add    %rax,%rbp
    1944:	48 29 c3             	sub    %rax,%rbx
    1947:	74 22                	je     196b <writen+0x4b>
    1949:	48 89 da             	mov    %rbx,%rdx
    194c:	48 89 ee             	mov    %rbp,%rsi
    194f:	44 89 e7             	mov    %r12d,%edi
    1952:	e8 a9 f5 ff ff       	callq  f00 <write@plt>
    1957:	48 85 c0             	test   %rax,%rax
    195a:	7f e5                	jg     1941 <writen+0x21>
    195c:	e8 6f f5 ff ff       	callq  ed0 <__errno_location@plt>
    1961:	83 38 04             	cmpl   $0x4,(%rax)
    1964:	75 11                	jne    1977 <writen+0x57>
    1966:	4c 89 f0             	mov    %r14,%rax
    1969:	eb d6                	jmp    1941 <writen+0x21>
    196b:	4c 89 e8             	mov    %r13,%rax
    196e:	5b                   	pop    %rbx
    196f:	5d                   	pop    %rbp
    1970:	41 5c                	pop    %r12
    1972:	41 5d                	pop    %r13
    1974:	41 5e                	pop    %r14
    1976:	c3                   	retq   
    1977:	48 c7 c0 ff ff ff ff 	mov    $0xffffffffffffffff,%rax
    197e:	eb ee                	jmp    196e <writen+0x4e>

0000000000001980 <send_msg>:
    1980:	41 57                	push   %r15
    1982:	41 56                	push   %r14
    1984:	41 55                	push   %r13
    1986:	41 54                	push   %r12
    1988:	55                   	push   %rbp
    1989:	53                   	push   %rbx
    198a:	48 81 ec 68 24 00 00 	sub    $0x2468,%rsp
    1991:	41 89 fc             	mov    %edi,%r12d
    1994:	ba 00 00 00 00       	mov    $0x0,%edx
    1999:	be 01 00 00 00       	mov    $0x1,%esi
    199e:	bf 02 00 00 00       	mov    $0x2,%edi
    19a3:	e8 08 f7 ff ff       	callq  10b0 <socket@plt>
    19a8:	41 89 c7             	mov    %eax,%r15d
    19ab:	85 c0                	test   %eax,%eax
    19ad:	0f 88 2a 02 00 00    	js     1bdd <send_msg+0x25d>
    19b3:	48 c7 84 24 50 24 00 	movq   $0x0,0x2450(%rsp)
    19ba:	00 00 00 00 00 
    19bf:	48 c7 84 24 58 24 00 	movq   $0x0,0x2458(%rsp)
    19c6:	00 00 00 00 00 
    19cb:	66 c7 84 24 50 24 00 	movw   $0x2,0x2450(%rsp)
    19d2:	00 02 00 
    19d5:	66 c7 84 24 52 24 00 	movw   $0x7ac8,0x2452(%rsp)
    19dc:	00 c8 7a 
    19df:	48 8d 94 24 54 24 00 	lea    0x2454(%rsp),%rdx
    19e6:	00 
    19e7:	48 8d 35 95 0b 00 00 	lea    0xb95(%rip),%rsi        # 2583 <array.3088+0x1c3>
    19ee:	bf 02 00 00 00       	mov    $0x2,%edi
    19f3:	b8 00 00 00 00       	mov    $0x0,%eax
    19f8:	e8 e3 f5 ff ff       	callq  fe0 <inet_pton@plt>
    19fd:	85 c0                	test   %eax,%eax
    19ff:	0f 88 09 02 00 00    	js     1c0e <send_msg+0x28e>
    1a05:	48 8d b4 24 50 24 00 	lea    0x2450(%rsp),%rsi
    1a0c:	00 
    1a0d:	ba 10 00 00 00       	mov    $0x10,%edx
    1a12:	44 89 ff             	mov    %r15d,%edi
    1a15:	e8 56 f6 ff ff       	callq  1070 <connect@plt>
    1a1a:	85 c0                	test   %eax,%eax
    1a1c:	0f 88 22 02 00 00    	js     1c44 <send_msg+0x2c4>
    1a22:	48 8d 6c 24 50       	lea    0x50(%rsp),%rbp
    1a27:	48 b8 53 75 62 6a 65 	movabs $0x3a7463656a627553,%rax
    1a2e:	63 74 3a 
    1a31:	48 89 44 24 50       	mov    %rax,0x50(%rsp)
    1a36:	48 b8 20 42 6f 6d 62 	movabs $0x6f6e20626d6f4220,%rax
    1a3d:	20 6e 6f 
    1a40:	48 89 44 24 58       	mov    %rax,0x58(%rsp)
    1a45:	48 b8 74 69 66 69 63 	movabs $0x6974616369666974,%rax
    1a4c:	61 74 69 
    1a4f:	48 89 44 24 60       	mov    %rax,0x60(%rsp)
    1a54:	c7 44 24 68 6f 6e 0a 	movl   $0xa6e6f,0x68(%rsp)
    1a5b:	00 
    1a5c:	48 8d 9c 24 50 04 00 	lea    0x450(%rsp),%rbx
    1a63:	00 
    1a64:	48 89 ee             	mov    %rbp,%rsi
    1a67:	48 89 df             	mov    %rbx,%rdi
    1a6a:	e8 d1 f5 ff ff       	callq  1040 <strcat@plt>
    1a6f:	66 c7 44 24 50 0a 00 	movw   $0xa,0x50(%rsp)
    1a76:	48 89 ee             	mov    %rbp,%rsi
    1a79:	48 89 df             	mov    %rbx,%rdi
    1a7c:	e8 bf f5 ff ff       	callq  1040 <strcat@plt>
    1a81:	bf 00 00 00 00       	mov    $0x0,%edi
    1a86:	e8 95 f5 ff ff       	callq  1020 <cuserid@plt>
    1a8b:	48 85 c0             	test   %rax,%rax
    1a8e:	0f 84 e6 01 00 00    	je     1c7a <send_msg+0x2fa>
    1a94:	48 89 e7             	mov    %rsp,%rdi
    1a97:	48 89 c6             	mov    %rax,%rsi
    1a9a:	e8 41 f4 ff ff       	callq  ee0 <strcpy@plt>
    1a9f:	45 85 e4             	test   %r12d,%r12d
    1aa2:	48 8d 05 f0 0a 00 00 	lea    0xaf0(%rip),%rax        # 2599 <array.3088+0x1d9>
    1aa9:	4c 8d 0d e1 0a 00 00 	lea    0xae1(%rip),%r9        # 2591 <array.3088+0x1d1>
    1ab0:	4c 0f 44 c8          	cmove  %rax,%r9
    1ab4:	48 8d 5c 24 50       	lea    0x50(%rsp),%rbx
    1ab9:	48 83 ec 08          	sub    $0x8,%rsp
    1abd:	8b 05 f9 1c 20 00    	mov    0x201cf9(%rip),%eax        # 2037bc <num_input_strings>
    1ac3:	50                   	push   %rax
    1ac4:	4c 8d 44 24 10       	lea    0x10(%rsp),%r8
    1ac9:	8b 0d 91 1b 20 00    	mov    0x201b91(%rip),%ecx        # 203660 <bomb_id>
    1acf:	48 8d 15 8a 17 20 00 	lea    0x20178a(%rip),%rdx        # 203260 <lab_id>
    1ad6:	48 8d 35 e0 0a 00 00 	lea    0xae0(%rip),%rsi        # 25bd <array.3088+0x1fd>
    1add:	48 89 df             	mov    %rbx,%rdi
    1ae0:	b8 00 00 00 00       	mov    $0x0,%eax
    1ae5:	e8 66 f5 ff ff       	callq  1050 <sprintf@plt>
    1aea:	48 8d bc 24 60 04 00 	lea    0x460(%rsp),%rdi
    1af1:	00 
    1af2:	48 89 de             	mov    %rbx,%rsi
    1af5:	e8 46 f5 ff ff       	callq  1040 <strcat@plt>
    1afa:	48 83 c4 10          	add    $0x10,%rsp
    1afe:	83 3d b7 1c 20 00 00 	cmpl   $0x0,0x201cb7(%rip)        # 2037bc <num_input_strings>
    1b05:	7e 70                	jle    1b77 <send_msg+0x1f7>
    1b07:	bb 00 00 00 00       	mov    $0x0,%ebx
    1b0c:	4c 8d 35 cd 1c 20 00 	lea    0x201ccd(%rip),%r14        # 2037e0 <input_strings>
    1b13:	49 89 e5             	mov    %rsp,%r13
    1b16:	48 8d 6c 24 50       	lea    0x50(%rsp),%rbp
    1b1b:	4c 8d a4 24 50 04 00 	lea    0x450(%rsp),%r12
    1b22:	00 
    1b23:	48 63 c3             	movslq %ebx,%rax
    1b26:	48 8d 04 80          	lea    (%rax,%rax,4),%rax
    1b2a:	48 c1 e0 04          	shl    $0x4,%rax
    1b2e:	4c 01 f0             	add    %r14,%rax
    1b31:	83 c3 01             	add    $0x1,%ebx
    1b34:	48 83 ec 08          	sub    $0x8,%rsp
    1b38:	50                   	push   %rax
    1b39:	41 89 d9             	mov    %ebx,%r9d
    1b3c:	4d 89 e8             	mov    %r13,%r8
    1b3f:	8b 0d 1b 1b 20 00    	mov    0x201b1b(%rip),%ecx        # 203660 <bomb_id>
    1b45:	48 8d 15 14 17 20 00 	lea    0x201714(%rip),%rdx        # 203260 <lab_id>
    1b4c:	48 8d 35 86 0a 00 00 	lea    0xa86(%rip),%rsi        # 25d9 <array.3088+0x219>
    1b53:	48 89 ef             	mov    %rbp,%rdi
    1b56:	b8 00 00 00 00       	mov    $0x0,%eax
    1b5b:	e8 f0 f4 ff ff       	callq  1050 <sprintf@plt>
    1b60:	48 89 ee             	mov    %rbp,%rsi
    1b63:	4c 89 e7             	mov    %r12,%rdi
    1b66:	e8 d5 f4 ff ff       	callq  1040 <strcat@plt>
    1b6b:	48 83 c4 10          	add    $0x10,%rsp
    1b6f:	39 1d 47 1c 20 00    	cmp    %ebx,0x201c47(%rip)        # 2037bc <num_input_strings>
    1b75:	7f ac                	jg     1b23 <send_msg+0x1a3>
    1b77:	48 8d ac 24 50 04 00 	lea    0x450(%rsp),%rbp
    1b7e:	00 
    1b7f:	49 c7 c4 ff ff ff ff 	mov    $0xffffffffffffffff,%r12
    1b86:	bb 00 00 00 00       	mov    $0x0,%ebx
    1b8b:	4c 89 e1             	mov    %r12,%rcx
    1b8e:	48 89 ef             	mov    %rbp,%rdi
    1b91:	89 d8                	mov    %ebx,%eax
    1b93:	f2 ae                	repnz scas %es:(%rdi),%al
    1b95:	48 f7 d1             	not    %rcx
    1b98:	4a 8d 14 21          	lea    (%rcx,%r12,1),%rdx
    1b9c:	48 89 ee             	mov    %rbp,%rsi
    1b9f:	44 89 ff             	mov    %r15d,%edi
    1ba2:	e8 79 fd ff ff       	callq  1920 <writen>
    1ba7:	48 89 c2             	mov    %rax,%rdx
    1baa:	4c 89 e1             	mov    %r12,%rcx
    1bad:	48 89 ef             	mov    %rbp,%rdi
    1bb0:	89 d8                	mov    %ebx,%eax
    1bb2:	f2 ae                	repnz scas %es:(%rdi),%al
    1bb4:	48 f7 d1             	not    %rcx
    1bb7:	4c 01 e1             	add    %r12,%rcx
    1bba:	48 39 ca             	cmp    %rcx,%rdx
    1bbd:	0f 82 cf 00 00 00    	jb     1c92 <send_msg+0x312>
    1bc3:	44 89 ff             	mov    %r15d,%edi
    1bc6:	e8 95 f3 ff ff       	callq  f60 <close@plt>
    1bcb:	48 81 c4 68 24 00 00 	add    $0x2468,%rsp
    1bd2:	5b                   	pop    %rbx
    1bd3:	5d                   	pop    %rbp
    1bd4:	41 5c                	pop    %r12
    1bd6:	41 5d                	pop    %r13
    1bd8:	41 5e                	pop    %r14
    1bda:	41 5f                	pop    %r15
    1bdc:	c3                   	retq   
    1bdd:	48 8d 15 be 09 00 00 	lea    0x9be(%rip),%rdx        # 25a2 <array.3088+0x1e2>
    1be4:	48 8d 35 12 06 00 00 	lea    0x612(%rip),%rsi        # 21fd <_IO_stdin_used+0x1d>
    1beb:	48 8b 3d ae 1b 20 00 	mov    0x201bae(%rip),%rdi        # 2037a0 <stdout@@GLIBC_2.2.5>
    1bf2:	b8 00 00 00 00       	mov    $0x0,%eax
    1bf7:	e8 c4 f3 ff ff       	callq  fc0 <fprintf@plt>
    1bfc:	44 89 ff             	mov    %r15d,%edi
    1bff:	e8 5c f3 ff ff       	callq  f60 <close@plt>
    1c04:	bf 01 00 00 00       	mov    $0x1,%edi
    1c09:	e8 52 f4 ff ff       	callq  1060 <exit@plt>
    1c0e:	48 8d 15 01 0a 00 00 	lea    0xa01(%rip),%rdx        # 2616 <array.3088+0x256>
    1c15:	48 8d 35 e1 05 00 00 	lea    0x5e1(%rip),%rsi        # 21fd <_IO_stdin_used+0x1d>
    1c1c:	48 8b 3d 7d 1b 20 00 	mov    0x201b7d(%rip),%rdi        # 2037a0 <stdout@@GLIBC_2.2.5>
    1c23:	b8 00 00 00 00       	mov    $0x0,%eax
    1c28:	e8 93 f3 ff ff       	callq  fc0 <fprintf@plt>
    1c2d:	45 85 ff             	test   %r15d,%r15d
    1c30:	74 08                	je     1c3a <send_msg+0x2ba>
    1c32:	44 89 ff             	mov    %r15d,%edi
    1c35:	e8 26 f3 ff ff       	callq  f60 <close@plt>
    1c3a:	bf 01 00 00 00       	mov    $0x1,%edi
    1c3f:	e8 1c f4 ff ff       	callq  1060 <exit@plt>
    1c44:	48 8d 15 64 09 00 00 	lea    0x964(%rip),%rdx        # 25af <array.3088+0x1ef>
    1c4b:	48 8d 35 ab 05 00 00 	lea    0x5ab(%rip),%rsi        # 21fd <_IO_stdin_used+0x1d>
    1c52:	48 8b 3d 47 1b 20 00 	mov    0x201b47(%rip),%rdi        # 2037a0 <stdout@@GLIBC_2.2.5>
    1c59:	b8 00 00 00 00       	mov    $0x0,%eax
    1c5e:	e8 5d f3 ff ff       	callq  fc0 <fprintf@plt>
    1c63:	45 85 ff             	test   %r15d,%r15d
    1c66:	74 08                	je     1c70 <send_msg+0x2f0>
    1c68:	44 89 ff             	mov    %r15d,%edi
    1c6b:	e8 f0 f2 ff ff       	callq  f60 <close@plt>
    1c70:	bf 01 00 00 00       	mov    $0x1,%edi
    1c75:	e8 e6 f3 ff ff       	callq  1060 <exit@plt>
    1c7a:	c7 04 24 6e 6f 62 6f 	movl   $0x6f626f6e,(%rsp)
    1c81:	66 c7 44 24 04 64 79 	movw   $0x7964,0x4(%rsp)
    1c88:	c6 44 24 06 00       	movb   $0x0,0x6(%rsp)
    1c8d:	e9 0d fe ff ff       	jmpq   1a9f <send_msg+0x11f>
    1c92:	48 8d 15 5c 09 00 00 	lea    0x95c(%rip),%rdx        # 25f5 <array.3088+0x235>
    1c99:	48 8d 35 5d 05 00 00 	lea    0x55d(%rip),%rsi        # 21fd <_IO_stdin_used+0x1d>
    1ca0:	48 8b 3d f9 1a 20 00 	mov    0x201af9(%rip),%rdi        # 2037a0 <stdout@@GLIBC_2.2.5>
    1ca7:	e8 14 f3 ff ff       	callq  fc0 <fprintf@plt>
    1cac:	45 85 ff             	test   %r15d,%r15d
    1caf:	74 08                	je     1cb9 <send_msg+0x339>
    1cb1:	44 89 ff             	mov    %r15d,%edi
    1cb4:	e8 a7 f2 ff ff       	callq  f60 <close@plt>
    1cb9:	bf 01 00 00 00       	mov    $0x1,%edi
    1cbe:	e8 9d f3 ff ff       	callq  1060 <exit@plt>

0000000000001cc3 <send_msg_2>:
    1cc3:	41 57                	push   %r15
    1cc5:	41 56                	push   %r14
    1cc7:	41 55                	push   %r13
    1cc9:	41 54                	push   %r12
    1ccb:	55                   	push   %rbp
    1ccc:	53                   	push   %rbx
    1ccd:	48 83 ec 68          	sub    $0x68,%rsp
    1cd1:	89 fb                	mov    %edi,%ebx
    1cd3:	bf 00 00 00 00       	mov    $0x0,%edi
    1cd8:	e8 73 f2 ff ff       	callq  f50 <dup@plt>
    1cdd:	89 44 24 0c          	mov    %eax,0xc(%rsp)
    1ce1:	83 f8 ff             	cmp    $0xffffffff,%eax
    1ce4:	0f 84 a6 01 00 00    	je     1e90 <send_msg_2+0x1cd>
    1cea:	bf 00 00 00 00       	mov    $0x0,%edi
    1cef:	e8 6c f2 ff ff       	callq  f60 <close@plt>
    1cf4:	83 f8 ff             	cmp    $0xffffffff,%eax
    1cf7:	0f 84 a9 01 00 00    	je     1ea6 <send_msg_2+0x1e3>
    1cfd:	e8 8e f2 ff ff       	callq  f90 <tmpfile@plt>
    1d02:	48 89 c5             	mov    %rax,%rbp
    1d05:	48 85 c0             	test   %rax,%rax
    1d08:	0f 84 ae 01 00 00    	je     1ebc <send_msg_2+0x1f9>
    1d0e:	48 89 c1             	mov    %rax,%rcx
    1d11:	ba 1b 00 00 00       	mov    $0x1b,%edx
    1d16:	be 01 00 00 00       	mov    $0x1,%esi
    1d1b:	48 8d 3d 22 09 00 00 	lea    0x922(%rip),%rdi        # 2644 <array.3088+0x284>
    1d22:	e8 59 f3 ff ff       	callq  1080 <fwrite@plt>
    1d27:	48 89 ee             	mov    %rbp,%rsi
    1d2a:	bf 0a 00 00 00       	mov    $0xa,%edi
    1d2f:	e8 3c f2 ff ff       	callq  f70 <fputc@plt>
    1d34:	bf 00 00 00 00       	mov    $0x0,%edi
    1d39:	e8 e2 f2 ff ff       	callq  1020 <cuserid@plt>
    1d3e:	48 85 c0             	test   %rax,%rax
    1d41:	0f 84 8b 01 00 00    	je     1ed2 <send_msg_2+0x20f>
    1d47:	48 8d 7c 24 10       	lea    0x10(%rsp),%rdi
    1d4c:	48 89 c6             	mov    %rax,%rsi
    1d4f:	e8 8c f1 ff ff       	callq  ee0 <strcpy@plt>
    1d54:	85 db                	test   %ebx,%ebx
    1d56:	48 8d 05 3c 08 00 00 	lea    0x83c(%rip),%rax        # 2599 <array.3088+0x1d9>
    1d5d:	4c 8d 0d 2d 08 00 00 	lea    0x82d(%rip),%r9        # 2591 <array.3088+0x1d1>
    1d64:	4c 0f 44 c8          	cmove  %rax,%r9
    1d68:	48 83 ec 08          	sub    $0x8,%rsp
    1d6c:	8b 05 4a 1a 20 00    	mov    0x201a4a(%rip),%eax        # 2037bc <num_input_strings>
    1d72:	50                   	push   %rax
    1d73:	4c 8d 44 24 20       	lea    0x20(%rsp),%r8
    1d78:	8b 0d e2 18 20 00    	mov    0x2018e2(%rip),%ecx        # 203660 <bomb_id>
    1d7e:	48 8d 15 db 14 20 00 	lea    0x2014db(%rip),%rdx        # 203260 <lab_id>
    1d85:	48 8d 35 31 08 00 00 	lea    0x831(%rip),%rsi        # 25bd <array.3088+0x1fd>
    1d8c:	48 89 ef             	mov    %rbp,%rdi
    1d8f:	b8 00 00 00 00       	mov    $0x0,%eax
    1d94:	e8 27 f2 ff ff       	callq  fc0 <fprintf@plt>
    1d99:	48 83 c4 10          	add    $0x10,%rsp
    1d9d:	83 3d 18 1a 20 00 00 	cmpl   $0x0,0x201a18(%rip)        # 2037bc <num_input_strings>
    1da4:	7e 60                	jle    1e06 <send_msg_2+0x143>
    1da6:	bb 00 00 00 00       	mov    $0x0,%ebx
    1dab:	4c 8d 3d 2e 1a 20 00 	lea    0x201a2e(%rip),%r15        # 2037e0 <input_strings>
    1db2:	4c 8d 74 24 10       	lea    0x10(%rsp),%r14
    1db7:	4c 8d 2d a2 14 20 00 	lea    0x2014a2(%rip),%r13        # 203260 <lab_id>
    1dbe:	4c 8d 25 14 08 00 00 	lea    0x814(%rip),%r12        # 25d9 <array.3088+0x219>
    1dc5:	48 63 c3             	movslq %ebx,%rax
    1dc8:	48 8d 04 80          	lea    (%rax,%rax,4),%rax
    1dcc:	48 c1 e0 04          	shl    $0x4,%rax
    1dd0:	4c 01 f8             	add    %r15,%rax
    1dd3:	83 c3 01             	add    $0x1,%ebx
    1dd6:	48 83 ec 08          	sub    $0x8,%rsp
    1dda:	50                   	push   %rax
    1ddb:	41 89 d9             	mov    %ebx,%r9d
    1dde:	4d 89 f0             	mov    %r14,%r8
    1de1:	8b 0d 79 18 20 00    	mov    0x201879(%rip),%ecx        # 203660 <bomb_id>
    1de7:	4c 89 ea             	mov    %r13,%rdx
    1dea:	4c 89 e6             	mov    %r12,%rsi
    1ded:	48 89 ef             	mov    %rbp,%rdi
    1df0:	b8 00 00 00 00       	mov    $0x0,%eax
    1df5:	e8 c6 f1 ff ff       	callq  fc0 <fprintf@plt>
    1dfa:	48 83 c4 10          	add    $0x10,%rsp
    1dfe:	39 1d b8 19 20 00    	cmp    %ebx,0x2019b8(%rip)        # 2037bc <num_input_strings>
    1e04:	7f bf                	jg     1dc5 <send_msg_2+0x102>
    1e06:	48 89 ef             	mov    %rbp,%rdi
    1e09:	e8 32 f1 ff ff       	callq  f40 <rewind@plt>
    1e0e:	4c 8d 05 4b 08 00 00 	lea    0x84b(%rip),%r8        # 2660 <array.3088+0x2a0>
    1e15:	48 8d 0d 4e 08 00 00 	lea    0x84e(%rip),%rcx        # 266a <array.3088+0x2aa>
    1e1c:	48 8d 15 4f 08 00 00 	lea    0x84f(%rip),%rdx        # 2672 <array.3088+0x2b2>
    1e23:	48 8d 35 5f 08 00 00 	lea    0x85f(%rip),%rsi        # 2689 <array.3088+0x2c9>
    1e2a:	48 8d 3d ef 1f 20 00 	lea    0x201fef(%rip),%rdi        # 203e20 <scratch>
    1e31:	b8 00 00 00 00       	mov    $0x0,%eax
    1e36:	e8 15 f2 ff ff       	callq  1050 <sprintf@plt>
    1e3b:	48 8d 3d de 1f 20 00 	lea    0x201fde(%rip),%rdi        # 203e20 <scratch>
    1e42:	e8 d9 f0 ff ff       	callq  f20 <system@plt>
    1e47:	85 c0                	test   %eax,%eax
    1e49:	0f 85 9c 00 00 00    	jne    1eeb <send_msg_2+0x228>
    1e4f:	48 89 ef             	mov    %rbp,%rdi
    1e52:	e8 b9 f0 ff ff       	callq  f10 <fclose@plt>
    1e57:	85 c0                	test   %eax,%eax
    1e59:	0f 85 a2 00 00 00    	jne    1f01 <send_msg_2+0x23e>
    1e5f:	8b 7c 24 0c          	mov    0xc(%rsp),%edi
    1e63:	e8 e8 f0 ff ff       	callq  f50 <dup@plt>
    1e68:	85 c0                	test   %eax,%eax
    1e6a:	0f 85 a7 00 00 00    	jne    1f17 <send_msg_2+0x254>
    1e70:	8b 7c 24 0c          	mov    0xc(%rsp),%edi
    1e74:	e8 e7 f0 ff ff       	callq  f60 <close@plt>
    1e79:	85 c0                	test   %eax,%eax
    1e7b:	0f 85 ac 00 00 00    	jne    1f2d <send_msg_2+0x26a>
    1e81:	48 83 c4 68          	add    $0x68,%rsp
    1e85:	5b                   	pop    %rbx
    1e86:	5d                   	pop    %rbp
    1e87:	41 5c                	pop    %r12
    1e89:	41 5d                	pop    %r13
    1e8b:	41 5e                	pop    %r14
    1e8d:	41 5f                	pop    %r15
    1e8f:	c3                   	retq   
    1e90:	48 8d 3d 71 07 00 00 	lea    0x771(%rip),%rdi        # 2608 <array.3088+0x248>
    1e97:	e8 54 f0 ff ff       	callq  ef0 <puts@plt>
    1e9c:	bf 08 00 00 00       	mov    $0x8,%edi
    1ea1:	e8 ba f1 ff ff       	callq  1060 <exit@plt>
    1ea6:	48 8d 3d 6f 07 00 00 	lea    0x76f(%rip),%rdi        # 261c <array.3088+0x25c>
    1ead:	e8 3e f0 ff ff       	callq  ef0 <puts@plt>
    1eb2:	bf 08 00 00 00       	mov    $0x8,%edi
    1eb7:	e8 a4 f1 ff ff       	callq  1060 <exit@plt>
    1ebc:	48 8d 3d 6c 07 00 00 	lea    0x76c(%rip),%rdi        # 262f <array.3088+0x26f>
    1ec3:	e8 28 f0 ff ff       	callq  ef0 <puts@plt>
    1ec8:	bf 08 00 00 00       	mov    $0x8,%edi
    1ecd:	e8 8e f1 ff ff       	callq  1060 <exit@plt>
    1ed2:	c7 44 24 10 6e 6f 62 	movl   $0x6f626f6e,0x10(%rsp)
    1ed9:	6f 
    1eda:	66 c7 44 24 14 64 79 	movw   $0x7964,0x14(%rsp)
    1ee1:	c6 44 24 16 00       	movb   $0x0,0x16(%rsp)
    1ee6:	e9 69 fe ff ff       	jmpq   1d54 <send_msg_2+0x91>
    1eeb:	48 8d 3d a0 07 00 00 	lea    0x7a0(%rip),%rdi        # 2692 <array.3088+0x2d2>
    1ef2:	e8 f9 ef ff ff       	callq  ef0 <puts@plt>
    1ef7:	bf 08 00 00 00       	mov    $0x8,%edi
    1efc:	e8 5f f1 ff ff       	callq  1060 <exit@plt>
    1f01:	48 8d 3d a4 07 00 00 	lea    0x7a4(%rip),%rdi        # 26ac <array.3088+0x2ec>
    1f08:	e8 e3 ef ff ff       	callq  ef0 <puts@plt>
    1f0d:	bf 08 00 00 00       	mov    $0x8,%edi
    1f12:	e8 49 f1 ff ff       	callq  1060 <exit@plt>
    1f17:	48 8d 3d a7 07 00 00 	lea    0x7a7(%rip),%rdi        # 26c5 <array.3088+0x305>
    1f1e:	e8 cd ef ff ff       	callq  ef0 <puts@plt>
    1f23:	bf 08 00 00 00       	mov    $0x8,%edi
    1f28:	e8 33 f1 ff ff       	callq  1060 <exit@plt>
    1f2d:	48 8d 3d ac 07 00 00 	lea    0x7ac(%rip),%rdi        # 26e0 <array.3088+0x320>
    1f34:	e8 b7 ef ff ff       	callq  ef0 <puts@plt>
    1f39:	bf 08 00 00 00       	mov    $0x8,%edi
    1f3e:	e8 1d f1 ff ff       	callq  1060 <exit@plt>

0000000000001f43 <explode_bomb>:
    1f43:	48 83 ec 08          	sub    $0x8,%rsp
    1f47:	48 8d 3d a9 07 00 00 	lea    0x7a9(%rip),%rdi        # 26f7 <array.3088+0x337>
    1f4e:	e8 9d ef ff ff       	callq  ef0 <puts@plt>
    1f53:	48 8d 3d a6 07 00 00 	lea    0x7a6(%rip),%rdi        # 2700 <array.3088+0x340>
    1f5a:	e8 91 ef ff ff       	callq  ef0 <puts@plt>
    1f5f:	bf 00 00 00 00       	mov    $0x0,%edi
    1f64:	e8 17 fa ff ff       	callq  1980 <send_msg>
    1f69:	48 8d 3d c8 04 00 00 	lea    0x4c8(%rip),%rdi        # 2438 <array.3088+0x78>
    1f70:	e8 7b ef ff ff       	callq  ef0 <puts@plt>
    1f75:	bf 08 00 00 00       	mov    $0x8,%edi
    1f7a:	e8 e1 f0 ff ff       	callq  1060 <exit@plt>

0000000000001f7f <read_six_numbers>:
    1f7f:	48 83 ec 08          	sub    $0x8,%rsp
    1f83:	48 89 f2             	mov    %rsi,%rdx
    1f86:	48 8d 4e 04          	lea    0x4(%rsi),%rcx
    1f8a:	48 8d 46 14          	lea    0x14(%rsi),%rax
    1f8e:	50                   	push   %rax
    1f8f:	48 8d 46 10          	lea    0x10(%rsi),%rax
    1f93:	50                   	push   %rax
    1f94:	4c 8d 4e 0c          	lea    0xc(%rsi),%r9
    1f98:	4c 8d 46 08          	lea    0x8(%rsi),%r8
    1f9c:	48 8d 35 74 07 00 00 	lea    0x774(%rip),%rsi        # 2717 <array.3088+0x357>
    1fa3:	b8 00 00 00 00       	mov    $0x0,%eax
    1fa8:	e8 53 f0 ff ff       	callq  1000 <__isoc99_sscanf@plt>
    1fad:	48 83 c4 10          	add    $0x10,%rsp
    1fb1:	83 f8 05             	cmp    $0x5,%eax
    1fb4:	7e 05                	jle    1fbb <read_six_numbers+0x3c>
    1fb6:	48 83 c4 08          	add    $0x8,%rsp
    1fba:	c3                   	retq   
    1fbb:	e8 83 ff ff ff       	callq  1f43 <explode_bomb>

0000000000001fc0 <read_line>:
    1fc0:	48 83 ec 08          	sub    $0x8,%rsp
    1fc4:	b8 00 00 00 00       	mov    $0x0,%eax
    1fc9:	e8 04 f9 ff ff       	callq  18d2 <skip>
    1fce:	48 85 c0             	test   %rax,%rax
    1fd1:	74 6f                	je     2042 <read_line+0x82>
    1fd3:	8b 35 e3 17 20 00    	mov    0x2017e3(%rip),%esi        # 2037bc <num_input_strings>
    1fd9:	48 63 c6             	movslq %esi,%rax
    1fdc:	48 8d 14 80          	lea    (%rax,%rax,4),%rdx
    1fe0:	48 c1 e2 04          	shl    $0x4,%rdx
    1fe4:	48 8d 05 f5 17 20 00 	lea    0x2017f5(%rip),%rax        # 2037e0 <input_strings>
    1feb:	48 01 c2             	add    %rax,%rdx
    1fee:	b8 00 00 00 00       	mov    $0x0,%eax
    1ff3:	48 c7 c1 ff ff ff ff 	mov    $0xffffffffffffffff,%rcx
    1ffa:	48 89 d7             	mov    %rdx,%rdi
    1ffd:	f2 ae                	repnz scas %es:(%rdi),%al
    1fff:	48 f7 d1             	not    %rcx
    2002:	48 83 e9 01          	sub    $0x1,%rcx
    2006:	83 f9 4f             	cmp    $0x4f,%ecx
    2009:	0f 84 a1 00 00 00    	je     20b0 <read_line+0xf0>
    200f:	83 e9 01             	sub    $0x1,%ecx
    2012:	48 63 c9             	movslq %ecx,%rcx
    2015:	48 63 c6             	movslq %esi,%rax
    2018:	48 8d 04 80          	lea    (%rax,%rax,4),%rax
    201c:	48 c1 e0 04          	shl    $0x4,%rax
    2020:	48 89 c7             	mov    %rax,%rdi
    2023:	48 8d 05 b6 17 20 00 	lea    0x2017b6(%rip),%rax        # 2037e0 <input_strings>
    202a:	48 01 f8             	add    %rdi,%rax
    202d:	c6 04 08 00          	movb   $0x0,(%rax,%rcx,1)
    2031:	83 c6 01             	add    $0x1,%esi
    2034:	89 35 82 17 20 00    	mov    %esi,0x201782(%rip)        # 2037bc <num_input_strings>
    203a:	48 89 d0             	mov    %rdx,%rax
    203d:	48 83 c4 08          	add    $0x8,%rsp
    2041:	c3                   	retq   
    2042:	48 8b 05 67 17 20 00 	mov    0x201767(%rip),%rax        # 2037b0 <stdin@@GLIBC_2.2.5>
    2049:	48 39 05 70 17 20 00 	cmp    %rax,0x201770(%rip)        # 2037c0 <infile>
    2050:	74 43                	je     2095 <read_line+0xd5>
    2052:	48 8d 3d ee 06 00 00 	lea    0x6ee(%rip),%rdi        # 2747 <array.3088+0x387>
    2059:	e8 62 ee ff ff       	callq  ec0 <getenv@plt>
    205e:	48 85 c0             	test   %rax,%rax
    2061:	75 43                	jne    20a6 <read_line+0xe6>
    2063:	48 8b 05 46 17 20 00 	mov    0x201746(%rip),%rax        # 2037b0 <stdin@@GLIBC_2.2.5>
    206a:	48 89 05 4f 17 20 00 	mov    %rax,0x20174f(%rip)        # 2037c0 <infile>
    2071:	b8 00 00 00 00       	mov    $0x0,%eax
    2076:	e8 57 f8 ff ff       	callq  18d2 <skip>
    207b:	48 85 c0             	test   %rax,%rax
    207e:	0f 85 4f ff ff ff    	jne    1fd3 <read_line+0x13>
    2084:	48 8d 3d 9e 06 00 00 	lea    0x69e(%rip),%rdi        # 2729 <array.3088+0x369>
    208b:	e8 60 ee ff ff       	callq  ef0 <puts@plt>
    2090:	e8 ae fe ff ff       	callq  1f43 <explode_bomb>
    2095:	48 8d 3d 8d 06 00 00 	lea    0x68d(%rip),%rdi        # 2729 <array.3088+0x369>
    209c:	e8 4f ee ff ff       	callq  ef0 <puts@plt>
    20a1:	e8 9d fe ff ff       	callq  1f43 <explode_bomb>
    20a6:	bf 00 00 00 00       	mov    $0x0,%edi
    20ab:	e8 b0 ef ff ff       	callq  1060 <exit@plt>
    20b0:	48 8d 3d 9b 06 00 00 	lea    0x69b(%rip),%rdi        # 2752 <array.3088+0x392>
    20b7:	e8 34 ee ff ff       	callq  ef0 <puts@plt>
    20bc:	e8 82 fe ff ff       	callq  1f43 <explode_bomb>

00000000000020c1 <phase_defused>:
    20c1:	48 83 ec 68          	sub    $0x68,%rsp
    20c5:	bf 01 00 00 00       	mov    $0x1,%edi
    20ca:	e8 b1 f8 ff ff       	callq  1980 <send_msg>
    20cf:	83 3d e6 16 20 00 06 	cmpl   $0x6,0x2016e6(%rip)        # 2037bc <num_input_strings>
    20d6:	74 05                	je     20dd <phase_defused+0x1c>
    20d8:	48 83 c4 68          	add    $0x68,%rsp
    20dc:	c3                   	retq   
    20dd:	48 8d 4c 24 10       	lea    0x10(%rsp),%rcx
    20e2:	48 8d 54 24 0c       	lea    0xc(%rsp),%rdx
    20e7:	48 8d 35 7f 06 00 00 	lea    0x67f(%rip),%rsi        # 276d <array.3088+0x3ad>
    20ee:	48 8d 3d db 17 20 00 	lea    0x2017db(%rip),%rdi        # 2038d0 <input_strings+0xf0>
    20f5:	b8 00 00 00 00       	mov    $0x0,%eax
    20fa:	e8 01 ef ff ff       	callq  1000 <__isoc99_sscanf@plt>
    20ff:	83 f8 02             	cmp    $0x2,%eax
    2102:	74 1a                	je     211e <phase_defused+0x5d>
    2104:	48 8d 3d b5 03 00 00 	lea    0x3b5(%rip),%rdi        # 24c0 <array.3088+0x100>
    210b:	e8 e0 ed ff ff       	callq  ef0 <puts@plt>
    2110:	48 8d 3d d9 03 00 00 	lea    0x3d9(%rip),%rdi        # 24f0 <array.3088+0x130>
    2117:	e8 d4 ed ff ff       	callq  ef0 <puts@plt>
    211c:	eb ba                	jmp    20d8 <phase_defused+0x17>
    211e:	48 8d 7c 24 10       	lea    0x10(%rsp),%rdi
    2123:	48 8d 35 49 06 00 00 	lea    0x649(%rip),%rsi        # 2773 <array.3088+0x3b3>
    212a:	e8 04 f6 ff ff       	callq  1733 <strings_not_equal>
    212f:	85 c0                	test   %eax,%eax
    2131:	75 d1                	jne    2104 <phase_defused+0x43>
    2133:	48 8d 3d 26 03 00 00 	lea    0x326(%rip),%rdi        # 2460 <array.3088+0xa0>
    213a:	e8 b1 ed ff ff       	callq  ef0 <puts@plt>
    213f:	48 8d 3d 42 03 00 00 	lea    0x342(%rip),%rdi        # 2488 <array.3088+0xc8>
    2146:	e8 a5 ed ff ff       	callq  ef0 <puts@plt>
    214b:	b8 00 00 00 00       	mov    $0x0,%eax
    2150:	e8 f0 f4 ff ff       	callq  1645 <secret_phase>
    2155:	eb ad                	jmp    2104 <phase_defused+0x43>
    2157:	66 0f 1f 84 00 00 00 	nopw   0x0(%rax,%rax,1)
    215e:	00 00 

0000000000002160 <__libc_csu_init>:
    2160:	41 57                	push   %r15
    2162:	41 56                	push   %r14
    2164:	41 89 ff             	mov    %edi,%r15d
    2167:	41 55                	push   %r13
    2169:	41 54                	push   %r12
    216b:	4c 8d 25 66 0c 20 00 	lea    0x200c66(%rip),%r12        # 202dd8 <__frame_dummy_init_array_entry>
    2172:	55                   	push   %rbp
    2173:	48 8d 2d 66 0c 20 00 	lea    0x200c66(%rip),%rbp        # 202de0 <__init_array_end>
    217a:	53                   	push   %rbx
    217b:	49 89 f6             	mov    %rsi,%r14
    217e:	49 89 d5             	mov    %rdx,%r13
    2181:	4c 29 e5             	sub    %r12,%rbp
    2184:	48 83 ec 08          	sub    $0x8,%rsp
    2188:	48 c1 fd 03          	sar    $0x3,%rbp
    218c:	e8 07 ed ff ff       	callq  e98 <_init>
    2191:	48 85 ed             	test   %rbp,%rbp
    2194:	74 20                	je     21b6 <__libc_csu_init+0x56>
    2196:	31 db                	xor    %ebx,%ebx
    2198:	0f 1f 84 00 00 00 00 	nopl   0x0(%rax,%rax,1)
    219f:	00 
    21a0:	4c 89 ea             	mov    %r13,%rdx
    21a3:	4c 89 f6             	mov    %r14,%rsi
    21a6:	44 89 ff             	mov    %r15d,%edi
    21a9:	41 ff 14 dc          	callq  *(%r12,%rbx,8)
    21ad:	48 83 c3 01          	add    $0x1,%rbx
    21b1:	48 39 dd             	cmp    %rbx,%rbp
    21b4:	75 ea                	jne    21a0 <__libc_csu_init+0x40>
    21b6:	48 83 c4 08          	add    $0x8,%rsp
    21ba:	5b                   	pop    %rbx
    21bb:	5d                   	pop    %rbp
    21bc:	41 5c                	pop    %r12
    21be:	41 5d                	pop    %r13
    21c0:	41 5e                	pop    %r14
    21c2:	41 5f                	pop    %r15
    21c4:	c3                   	retq   
    21c5:	90                   	nop
    21c6:	66 2e 0f 1f 84 00 00 	nopw   %cs:0x0(%rax,%rax,1)
    21cd:	00 00 00 

00000000000021d0 <__libc_csu_fini>:
    21d0:	f3 c3                	repz retq 

Disassembly of section .fini:

00000000000021d4 <_fini>:
    21d4:	48 83 ec 08          	sub    $0x8,%rsp
    21d8:	48 83 c4 08          	add    $0x8,%rsp
    21dc:	c3                   	retq   
